; Function Attrs: nounwind uwtable
define internal ptr @alloc_large(ptr noundef %0, i32 noundef %1, i64 noundef %2) #0 {
  %4 = getelementptr inbounds i8, ptr %0, i64 8
  %5 = load ptr, ptr %4, align 8
  %6 = icmp ugt i64 %2, 999999976
  br i1 %6, label %7, label %14

7:                                                ; preds = %3
  %8 = load ptr, ptr %0, align 8
  %9 = getelementptr inbounds i8, ptr %8, i64 40
  store i32 54, ptr %9, align 8
  %10 = load ptr, ptr %0, align 8
  %11 = getelementptr inbounds i8, ptr %10, i64 44
  store i32 3, ptr %11, align 4
  %12 = load ptr, ptr %0, align 8
  %13 = load ptr, ptr %12, align 8
  tail call void %13(ptr noundef nonnull %0) #6
  br label %14

14:                                               ; preds = %7, %3
  %.biased = add i64 %2, 7
  %.0 = and i64 %.biased, -8
  %or.cond = icmp ugt i32 %1, 1
  br i1 %or.cond, label %15, label %22

15:                                               ; preds = %14
  %16 = load ptr, ptr %0, align 8
  %17 = getelementptr inbounds i8, ptr %16, i64 40
  store i32 14, ptr %17, align 8
  %18 = load ptr, ptr %0, align 8
  %19 = getelementptr inbounds i8, ptr %18, i64 44
  store i32 %1, ptr %19, align 4
  %20 = load ptr, ptr %0, align 8
  %21 = load ptr, ptr %20, align 8
  tail call void %21(ptr noundef nonnull %0) #6
  br label %22

22:                                               ; preds = %14, %15
  %23 = add i64 %.0, 24
  %24 = tail call ptr @jGetLarge(ptr noundef nonnull %0, i64 noundef %23) #6
  %25 = icmp eq ptr %24, null
  br i1 %25, label %26, label %33

26:                                               ; preds = %22
  %27 = load ptr, ptr %0, align 8
  %28 = getelementptr inbounds i8, ptr %27, i64 40
  store i32 54, ptr %28, align 8
  %29 = load ptr, ptr %0, align 8
  %30 = getelementptr inbounds i8, ptr %29, i64 44
  store i32 4, ptr %30, align 4
  %31 = load ptr, ptr %0, align 8
  %32 = load ptr, ptr %31, align 8
  tail call void %32(ptr noundef nonnull %0) #6
  br label %33

33:                                               ; preds = %26, %22
  %34 = getelementptr inbounds i8, ptr %5, i64 152
  %35 = load i64, ptr %34, align 8
  %36 = add i64 %35, %23
  store i64 %36, ptr %34, align 8
  %37 = getelementptr inbounds i8, ptr %5, i64 120
  %38 = sext i32 %1 to i64
  %39 = getelementptr inbounds [2 x ptr], ptr %37, i64 0, i64 %38
  %40 = load ptr, ptr %39, align 8
  store ptr %40, ptr %24, align 8
  %41 = getelementptr inbounds i8, ptr %24, i64 8
  store i64 %.0, ptr %41, align 8
  %42 = getelementptr inbounds i8, ptr %24, i64 16
  store i64 0, ptr %42, align 8
  store ptr %24, ptr %39, align 8
  %43 = getelementptr inbounds i8, ptr %24, i64 24
  ret ptr %43
}